target datalayout = "e-m:e-p270:32:32-p271:32:32-p272:64:64-i64:64-i128:128-f80:128-n8:16:32:64-S128"
target triple = "x86_64-pc-linux-gnu"

%struct._cmsMemPluginChunkType = type { ptr, ptr, ptr, ptr, ptr, ptr }
%struct._cmsSubAllocator = type { ptr, ptr }
%struct._cmsSubAllocator_chunk_st = type { ptr, i32, i32, ptr }

; Function Attrs: nounwind uwtable
define hidden ptr @_cmsMalloc(ptr noundef %0, i32 noundef %1) #0 {
  %3 = alloca ptr, align 8
  %4 = alloca i32, align 4
  %5 = alloca ptr, align 8
  store ptr %0, ptr %3, align 8
  store i32 %1, ptr %4, align 4
  %6 = load ptr, ptr %3, align 8
  %7 = call ptr @_cmsContextGetClientChunk(ptr noundef %6, i32 noundef 4)
  store ptr %7, ptr %5, align 8
  %8 = load ptr, ptr %5, align 8
  %9 = getelementptr inbounds %struct._cmsMemPluginChunkType, ptr %8, i32 0, i32 0
  %10 = load ptr, ptr %9, align 8
  %11 = load ptr, ptr %3, align 8
  %12 = load i32, ptr %4, align 4
  %13 = call ptr %10(ptr noundef %11, i32 noundef %12)
  ret ptr %13
}

; Function Attrs: nounwind uwtable
define hidden void @_cmsFree(ptr noundef %0, ptr noundef %1) #0 {
  %3 = alloca ptr, align 8
  %4 = alloca ptr, align 8
  %5 = alloca ptr, align 8
  store ptr %0, ptr %3, align 8
  store ptr %1, ptr %4, align 8
  %6 = load ptr, ptr %4, align 8
  %7 = icmp ne ptr %6, null
  br i1 %7, label %8, label %16

8:                                                ; preds = %2
  %9 = load ptr, ptr %3, align 8
  %10 = call ptr @_cmsContextGetClientChunk(ptr noundef %9, i32 noundef 4)
  store ptr %10, ptr %5, align 8
  %11 = load ptr, ptr %5, align 8
  %12 = getelementptr inbounds %struct._cmsMemPluginChunkType, ptr %11, i32 0, i32 2
  %13 = load ptr, ptr %12, align 8
  %14 = load ptr, ptr %3, align 8
  %15 = load ptr, ptr %4, align 8
  call void %13(ptr noundef %14, ptr noundef %15)
  br label %16

16:                                               ; preds = %8, %2
  ret void
}

; Function Attrs: nounwind uwtable
define internal ptr @_cmsCreateSubAllocChunk(ptr noundef %0, i32 noundef %1) #0 {
  %3 = alloca ptr, align 8
  %4 = alloca ptr, align 8
  %5 = alloca i32, align 4
  %6 = alloca ptr, align 8
  store ptr %0, ptr %4, align 8
  store i32 %1, ptr %5, align 4
  %7 = load i32, ptr %5, align 4
  %8 = icmp eq i32 %7, 0
  br i1 %8, label %9, label %10

9:                                                ; preds = %2
  store i32 20480, ptr %5, align 4
  br label %10

10:                                               ; preds = %9, %2
  %11 = load ptr, ptr %4, align 8
  %12 = call ptr @_cmsMallocZero(ptr noundef %11, i32 noundef 24)
  store ptr %12, ptr %6, align 8
  %13 = load ptr, ptr %6, align 8
  %14 = icmp eq ptr %13, null
  br i1 %14, label %15, label %16

15:                                               ; preds = %10
  store ptr null, ptr %3, align 8
  br label %38

16:                                               ; preds = %10
  %17 = load ptr, ptr %4, align 8
  %18 = load i32, ptr %5, align 4
  %19 = call ptr @_cmsMalloc(ptr noundef %17, i32 noundef %18)
  %20 = load ptr, ptr %6, align 8
  %21 = getelementptr inbounds %struct._cmsSubAllocator_chunk_st, ptr %20, i32 0, i32 0
  store ptr %19, ptr %21, align 8
  %22 = load ptr, ptr %6, align 8
  %23 = getelementptr inbounds %struct._cmsSubAllocator_chunk_st, ptr %22, i32 0, i32 0
  %24 = load ptr, ptr %23, align 8
  %25 = icmp eq ptr %24, null
  br i1 %25, label %26, label %29

26:                                               ; preds = %16
  %27 = load ptr, ptr %4, align 8
  %28 = load ptr, ptr %6, align 8
  call void @_cmsFree(ptr noundef %27, ptr noundef %28)
  store ptr null, ptr %3, align 8
  br label %38

29:                                               ; preds = %16
  %30 = load i32, ptr %5, align 4
  %31 = load ptr, ptr %6, align 8
  %32 = getelementptr inbounds %struct._cmsSubAllocator_chunk_st, ptr %31, i32 0, i32 1
  store i32 %30, ptr %32, align 8
  %33 = load ptr, ptr %6, align 8
  %34 = getelementptr inbounds %struct._cmsSubAllocator_chunk_st, ptr %33, i32 0, i32 2
  store i32 0, ptr %34, align 4
  %35 = load ptr, ptr %6, align 8
  %36 = getelementptr inbounds %struct._cmsSubAllocator_chunk_st, ptr %35, i32 0, i32 3
  store ptr null, ptr %36, align 8
  %37 = load ptr, ptr %6, align 8
  store ptr %37, ptr %3, align 8
  br label %38

38:                                               ; preds = %29, %26, %15
  %39 = load ptr, ptr %3, align 8
  ret ptr %39
}

; Function Attrs: nounwind uwtable
define hidden ptr @_cmsMallocZero(ptr noundef %0, i32 noundef %1) #0 {
  %3 = alloca ptr, align 8
  %4 = alloca i32, align 4
  %5 = alloca ptr, align 8
  store ptr %0, ptr %3, align 8
  store i32 %1, ptr %4, align 4
  %6 = load ptr, ptr %3, align 8
  %7 = call ptr @_cmsContextGetClientChunk(ptr noundef %6, i32 noundef 4)
  store ptr %7, ptr %5, align 8
  %8 = load ptr, ptr %5, align 8
  %9 = getelementptr inbounds %struct._cmsMemPluginChunkType, ptr %8, i32 0, i32 1
  %10 = load ptr, ptr %9, align 8
  %11 = load ptr, ptr %3, align 8
  %12 = load i32, ptr %4, align 4
  %13 = call ptr %10(ptr noundef %11, i32 noundef %12)
  ret ptr %13
}

; Function Attrs: nounwind uwtable
define hidden ptr @_cmsCreateSubAlloc(ptr noundef %0, i32 noundef %1) #0 {
  %3 = alloca ptr, align 8
  %4 = alloca ptr, align 8
  %5 = alloca i32, align 4
  %6 = alloca ptr, align 8
  store ptr %0, ptr %4, align 8
  store i32 %1, ptr %5, align 4
  %7 = load ptr, ptr %4, align 8
  %8 = call ptr @_cmsMallocZero(ptr noundef %7, i32 noundef 16)
  store ptr %8, ptr %6, align 8
  %9 = load ptr, ptr %6, align 8
  %10 = icmp eq ptr %9, null
  br i1 %10, label %11, label %12

11:                                               ; preds = %2
  store ptr null, ptr %3, align 8
  br label %30

12:                                               ; preds = %2
  %13 = load ptr, ptr %4, align 8
  %14 = load ptr, ptr %6, align 8
  %15 = getelementptr inbounds %struct._cmsSubAllocator, ptr %14, i32 0, i32 0
  store ptr %13, ptr %15, align 8
  %16 = load ptr, ptr %4, align 8
  %17 = load i32, ptr %5, align 4
  %18 = call ptr @_cmsCreateSubAllocChunk(ptr noundef %16, i32 noundef %17)
  %19 = load ptr, ptr %6, align 8
  %20 = getelementptr inbounds %struct._cmsSubAllocator, ptr %19, i32 0, i32 1
  store ptr %18, ptr %20, align 8
  %21 = load ptr, ptr %6, align 8
  %22 = getelementptr inbounds %struct._cmsSubAllocator, ptr %21, i32 0, i32 1
  %23 = load ptr, ptr %22, align 8
  %24 = icmp eq ptr %23, null
  br i1 %24, label %25, label %28

25:                                               ; preds = %12
  %26 = load ptr, ptr %4, align 8
  %27 = load ptr, ptr %6, align 8
  call void @_cmsFree(ptr noundef %26, ptr noundef %27)
  store ptr null, ptr %3, align 8
  br label %30

28:                                               ; preds = %12
  %29 = load ptr, ptr %6, align 8
  store ptr %29, ptr %3, align 8
  br label %30

30:                                               ; preds = %28, %25, %11
  %31 = load ptr, ptr %3, align 8
  ret ptr %31
}