; Function Attrs: nounwind uwtable
define hidden ptr @_cmsCreateSubAlloc(ptr noundef %0, i32 noundef %1) local_unnamed_addr #6 {
  %3 = tail call ptr @_cmsContextGetClientChunk(ptr noundef %0, i32 noundef 4) #20
  %4 = getelementptr inbounds i8, ptr %3, i64 8
  %5 = load ptr, ptr %4, align 8
  %6 = tail call ptr %5(ptr noundef %0, i32 noundef 16) #20
  %7 = icmp eq ptr %6, null
  br i1 %7, label %31, label %8

8:                                                ; preds = %2
  store ptr %0, ptr %6, align 8
  %9 = icmp eq i32 %1, 0
  %spec.store.select.i = select i1 %9, i32 20480, i32 %1
  %10 = tail call ptr @_cmsContextGetClientChunk(ptr noundef %0, i32 noundef 4) #20
  %11 = getelementptr inbounds i8, ptr %10, i64 8
  %12 = load ptr, ptr %11, align 8
  %13 = tail call ptr %12(ptr noundef %0, i32 noundef 24) #20
  %14 = icmp eq ptr %13, null
  br i1 %14, label %_cmsFree.exit, label %15

15:                                               ; preds = %8
  %16 = tail call ptr @_cmsContextGetClientChunk(ptr noundef %0, i32 noundef 4) #20
  %17 = load ptr, ptr %16, align 8
  %18 = tail call ptr %17(ptr noundef %0, i32 noundef %spec.store.select.i) #20
  store ptr %18, ptr %13, align 8
  %19 = icmp eq ptr %18, null
  br i1 %19, label %_cmsFree.exit.i, label %_cmsCreateSubAllocChunk.exit

_cmsFree.exit.i:                                  ; preds = %15
  %20 = tail call ptr @_cmsContextGetClientChunk(ptr noundef %0, i32 noundef 4) #20
  %21 = getelementptr inbounds i8, ptr %20, i64 16
  %22 = load ptr, ptr %21, align 8
  tail call void %22(ptr noundef %0, ptr noundef nonnull %13) #20
  br label %_cmsFree.exit

_cmsCreateSubAllocChunk.exit:                     ; preds = %15
  %23 = getelementptr inbounds i8, ptr %13, i64 8
  store i32 %spec.store.select.i, ptr %23, align 8
  %24 = getelementptr inbounds i8, ptr %13, i64 12
  store i32 0, ptr %24, align 4
  %25 = getelementptr inbounds i8, ptr %13, i64 16
  store ptr null, ptr %25, align 8
  %26 = getelementptr inbounds i8, ptr %6, i64 8
  store ptr %13, ptr %26, align 8
  br label %31

_cmsFree.exit:                                    ; preds = %_cmsFree.exit.i, %8
  %27 = getelementptr inbounds i8, ptr %6, i64 8
  store ptr null, ptr %27, align 8
  %28 = tail call ptr @_cmsContextGetClientChunk(ptr noundef %0, i32 noundef 4) #20
  %29 = getelementptr inbounds i8, ptr %28, i64 16
  %30 = load ptr, ptr %29, align 8
  tail call void %30(ptr noundef %0, ptr noundef nonnull %6) #20
  br label %31

31:                                               ; preds = %_cmsCreateSubAllocChunk.exit, %2, %_cmsFree.exit
  %.0 = phi ptr [ null, %_cmsFree.exit ], [ null, %2 ], [ %6, %_cmsCreateSubAllocChunk.exit ]
  ret ptr %.0
}